target datalayout = "e-m:e-p270:32:32-p271:32:32-p272:64:64-i64:64-i128:128-f80:128-n8:16:32:64-S128"
target triple = "x86_64-unknown-linux-gnu"

%"class.arrow::Status" = type { ptr }

@_ZN5arrow11memory_pool8internal14zero_size_areaE = external global [1 x i64], align 8
@.str.1 = private unnamed_addr constant [16 x i8] c"malloc of size \00", align 1
@.str.2 = private unnamed_addr constant [8 x i8] c" failed\00", align 1

; Function Attrs: mustprogress nounwind uwtable
define linkonce_odr void @_ZN5arrow6StatusC2Ev(ptr noundef nonnull align 8 dereferenceable(8) %this) unnamed_addr #1 comdat align 2 {
entry:
  %this.addr = alloca ptr, align 8
  store ptr %this, ptr %this.addr, align 8
  %this1 = load ptr, ptr %this.addr, align 8
  %state_ = getelementptr inbounds %"class.arrow::Status", ptr %this1, i32 0, i32 0
  store ptr null, ptr %state_, align 8
  ret void
}

; Function Attrs: mustprogress uwtable
define linkonce_odr void @_ZN5arrow6Status11OutOfMemoryIJRA16_KcRlRA8_S2_EEES0_DpOT_(ptr noalias sret(%"class.arrow::Status") align 8 %agg.result, ptr noundef nonnull align 1 dereferenceable(16) %args, ptr noundef nonnull align 8 dereferenceable(8) %args1, ptr noundef nonnull align 1 dereferenceable(8) %args3) #0 comdat align 2 {
entry:
  %result.ptr = alloca ptr, align 8
  %args.addr = alloca ptr, align 8
  %args.addr2 = alloca ptr, align 8
  %args.addr4 = alloca ptr, align 8
  store ptr %agg.result, ptr %result.ptr, align 8
  store ptr %args, ptr %args.addr, align 8
  store ptr %args1, ptr %args.addr2, align 8
  store ptr %args3, ptr %args.addr4, align 8
  %0 = load ptr, ptr %args.addr, align 8
  %1 = load ptr, ptr %args.addr2, align 8
  %2 = load ptr, ptr %args.addr4, align 8
  call void @_ZN5arrow6Status8FromArgsIJRA16_KcRlRA8_S2_EEES0_NS_10StatusCodeEDpOT_(ptr sret(%"class.arrow::Status") align 8 %agg.result, i8 noundef signext 1, ptr noundef nonnull align 1 dereferenceable(16) %0, ptr noundef nonnull align 8 dereferenceable(8) %1, ptr noundef nonnull align 1 dereferenceable(8) %2)
  ret void
}

; Function Attrs: mustprogress nounwind uwtable
define linkonce_odr void @_ZN5arrow6Status2OKEv(ptr noalias sret(%"class.arrow::Status") align 8 %agg.result) #1 comdat align 2 {
entry:
  %result.ptr = alloca ptr, align 8
  store ptr %agg.result, ptr %result.ptr, align 8
  call void @_ZN5arrow6StatusC2Ev(ptr noundef nonnull align 8 dereferenceable(8) %agg.result) #16
  ret void
}

; Function Attrs: mustprogress uwtable
define void @_ZN5arrow11memory_pool8internal17JemallocAllocator15AllocateAlignedEllPPh(ptr noalias sret(%"class.arrow::Status") align 8 %agg.result, i64 noundef %size, i64 noundef %alignment, ptr noundef %out) #0 align 2 {
entry:
  %result.ptr = alloca ptr, align 8
  %size.addr = alloca i64, align 8
  %alignment.addr = alloca i64, align 8
  %out.addr = alloca ptr, align 8
  store ptr %agg.result, ptr %result.ptr, align 8
  store i64 %size, ptr %size.addr, align 8
  store i64 %alignment, ptr %alignment.addr, align 8
  store ptr %out, ptr %out.addr, align 8
  %0 = load i64, ptr %size.addr, align 8
  %cmp = icmp eq i64 %0, 0
  br i1 %cmp, label %if.then, label %if.end

if.then:                                          ; preds = %entry
  %1 = load ptr, ptr %out.addr, align 8
  store ptr @_ZN5arrow11memory_pool8internal14zero_size_areaE, ptr %1, align 8
  call void @_ZN5arrow6Status2OKEv(ptr sret(%"class.arrow::Status") align 8 %agg.result)
  br label %return

if.end:                                           ; preds = %entry
  %2 = load i64, ptr %size.addr, align 8
  %3 = load i64, ptr %alignment.addr, align 8
  %cmp1 = icmp ult i64 %3, 2147483647
  br i1 %cmp1, label %cond.true, label %cond.false

cond.true:                                        ; preds = %if.end
  %4 = load i64, ptr %alignment.addr, align 8
  %conv = trunc i64 %4 to i32
  %call = call i32 @ffs(i32 noundef %conv) #14
  %sub = sub nsw i32 %call, 1
  br label %cond.end

cond.false:                                       ; preds = %if.end
  %5 = load i64, ptr %alignment.addr, align 8
  %shr = lshr i64 %5, 32
  %conv2 = trunc i64 %shr to i32
  %call3 = call i32 @ffs(i32 noundef %conv2) #14
  %add = add nsw i32 %call3, 31
  br label %cond.end

cond.end:                                         ; preds = %cond.false, %cond.true
  %cond = phi i32 [ %sub, %cond.true ], [ %add, %cond.false ]
  %call4 = call noalias ptr @je_arrow_mallocx(i64 noundef %2, i32 noundef %cond) #15
  %6 = load ptr, ptr %out.addr, align 8
  store ptr %call4, ptr %6, align 8
  %7 = load ptr, ptr %out.addr, align 8
  %8 = load ptr, ptr %7, align 8
  %cmp5 = icmp eq ptr %8, null
  br i1 %cmp5, label %if.then6, label %if.end7

if.then6:                                         ; preds = %cond.end
  call void @_ZN5arrow6Status11OutOfMemoryIJRA16_KcRlRA8_S2_EEES0_DpOT_(ptr sret(%"class.arrow::Status") align 8 %agg.result, ptr noundef nonnull align 1 dereferenceable(16) @.str.1, ptr noundef nonnull align 8 dereferenceable(8) %size.addr, ptr noundef nonnull align 1 dereferenceable(8) @.str.2)
  br label %return

if.end7:                                          ; preds = %cond.end
  call void @_ZN5arrow6Status2OKEv(ptr sret(%"class.arrow::Status") align 8 %agg.result)
  br label %return

return:                                           ; preds = %if.end7, %if.then6, %if.then
  ret void
}