; Function Attrs: mustprogress uwtable
define void @_ZN5arrow11memory_pool8internal17JemallocAllocator15AllocateAlignedEllPPh(ptr noalias sret(%"class.arrow::Status") align 8 %agg.result, i64 noundef %size, i64 noundef %alignment, ptr noundef writeonly captures(none) initializes((0, 8)) %out) local_unnamed_addr #0 align 2 {
entry:
  %size.addr = alloca i64, align 8
  store i64 %size, ptr %size.addr, align 8
  %cmp = icmp eq i64 %size, 0
  br i1 %cmp, label %if.then, label %if.end

if.then:                                          ; preds = %entry
  store ptr @_ZN5arrow11memory_pool8internal14zero_size_areaE, ptr %out, align 8
  store ptr null, ptr %agg.result, align 8, !alias.scope !4
  br label %return

if.end:                                           ; preds = %entry
  %cmp1 = icmp ult i64 %alignment, 2147483647
  br i1 %cmp1, label %cond.true, label %cond.false

cond.true:                                        ; preds = %if.end
  %conv = trunc nuw nsw i64 %alignment to i32
  %cttz5 = tail call range(i32 0, 33) i32 @llvm.cttz.i32(i32 %conv, i1 true)
  %.not6 = icmp eq i64 %alignment, 0
  %sub = select i1 %.not6, i32 -1, i32 %cttz5
  br label %cond.end

cond.false:                                       ; preds = %if.end
  %shr = lshr i64 %alignment, 32
  %conv2 = trunc nuw i64 %shr to i32
  %cttz = tail call range(i32 0, 33) i32 @llvm.cttz.i32(i32 %conv2, i1 true)
  %.not = icmp ult i64 %alignment, 4294967296
  %0 = or disjoint i32 %cttz, 32
  %add = select i1 %.not, i32 31, i32 %0
  br label %cond.end

cond.end:                                         ; preds = %cond.false, %cond.true
  %cond = phi i32 [ %sub, %cond.true ], [ %add, %cond.false ]
  %call4 = tail call noalias ptr @je_arrow_mallocx(i64 noundef %size, i32 noundef %cond) #16
  store ptr %call4, ptr %out, align 8
  %cmp5 = icmp eq ptr %call4, null
  br i1 %cmp5, label %if.then6, label %if.end7

if.then6:                                         ; preds = %cond.end
  call void @_ZN5arrow6Status8FromArgsIJRA16_KcRlRA8_S2_EEES0_NS_10StatusCodeEDpOT_(ptr sret(%"class.arrow::Status") align 8 %agg.result, i8 noundef signext 1, ptr noundef nonnull align 1 dereferenceable(16) @.str.1, ptr noundef nonnull align 8 dereferenceable(8) %size.addr, ptr noundef nonnull align 1 dereferenceable(8) @.str.2)
  br label %return

if.end7:                                          ; preds = %cond.end
  store ptr null, ptr %agg.result, align 8, !alias.scope !7
  br label %return

return:                                           ; preds = %if.end7, %if.then6, %if.then
  ret void
}